; Function Attrs: mustprogress uwtable
define noundef range(i32 0, 2) i32 @_ZN6LibRaw10canon_s2isEv(ptr noundef nonnull readonly align 8 captures(none) dereferenceable(767680) %0) local_unnamed_addr #0 align 2 {
  %2 = getelementptr inbounds nuw i8, ptr %0, i64 381416
  br label %4

3:                                                ; preds = %4
  %indvars.iv.next = add nuw nsw i64 %indvars.iv, 1
  %exitcond.not = icmp eq i64 %indvars.iv.next, 100
  br i1 %exitcond.not, label %18, label %4, !llvm.loop !82

4:                                                ; preds = %1, %3
  %indvars.iv = phi i64 [ 0, %1 ], [ %indvars.iv.next, %3 ]
  %5 = load ptr, ptr %2, align 8, !tbaa !6
  %6 = mul nuw nsw i64 %indvars.iv, 3340
  %7 = add nuw nsw i64 %6, 3284
  %8 = load ptr, ptr %5, align 8, !tbaa !71
  %9 = getelementptr inbounds nuw i8, ptr %8, i64 32
  %10 = load ptr, ptr %9, align 8
  %11 = tail call noundef i32 %10(ptr noundef nonnull align 8 dereferenceable(8) %5, i64 noundef %7, i32 noundef 0)
  %12 = load ptr, ptr %2, align 8, !tbaa !6
  %13 = load ptr, ptr %12, align 8, !tbaa !71
  %14 = getelementptr inbounds nuw i8, ptr %13, i64 56
  %15 = load ptr, ptr %14, align 8
  %16 = tail call noundef i32 %15(ptr noundef nonnull align 8 dereferenceable(8) %12)
  %17 = icmp sgt i32 %16, 15
  br i1 %17, label %18, label %3

18:                                               ; preds = %3, %4
  %.04 = phi i32 [ 1, %4 ], [ 0, %3 ]
  ret i32 %.04
}